target datalayout = "e-m:e-p270:32:32-p271:32:32-p272:64:64-i64:64-i128:128-f80:128-n8:16:32:64-S128"
target triple = "x86_64-unknown-linux-gnu"

%"class.QuantLib::Date" = type { i64 }
%"class.boost::detail::shared_count" = type { ptr }
%"class.boost::optional" = type { %"class.boost::optional_detail::optional_base" }
%"class.boost::optional_detail::optional_base" = type { i8, [3 x i8], %"class.boost::optional_detail::aligned_storage" }
%"class.boost::optional_detail::aligned_storage" = type { %"union.boost::optional_detail::aligned_storage<QuantLib::Period>::dummy_u" }
%"union.boost::optional_detail::aligned_storage<QuantLib::Period>::dummy_u" = type { [8 x i8] }
%"class.QuantLib::Calendar" = type { %"class.boost::shared_ptr.6" }
%"class.boost::shared_ptr.6" = type { ptr, %"class.boost::detail::shared_count" }
%"class.boost::optional.10" = type { %"class.boost::optional_detail::tc_optional_base" }
%"class.boost::optional_detail::tc_optional_base" = type { i8, i32 }
%"class.QuantLib::MakeSchedule" = type { %"class.QuantLib::Calendar", %"class.QuantLib::Date", %"class.QuantLib::Date", %"class.boost::optional", %"class.boost::optional.10", %"class.boost::optional.10", i32, i8, %"class.QuantLib::Date", %"class.QuantLib::Date" }
%union.anon.29 = type { ptr }

; Function Attrs: mustprogress nounwind uwtable
define linkonce_odr noundef ptr @_ZN5boost15optional_detail15aligned_storageIN8QuantLib6PeriodEE7ptr_refEv(ptr noundef nonnull align 4 dereferenceable(8) %this) #1 comdat align 2 {
entry:
  %this.addr = alloca ptr, align 8
  %caster = alloca %union.anon.29, align 8
  store ptr %this, ptr %this.addr, align 8, !tbaa !3
  %this1 = load ptr, ptr %this.addr, align 8
  call void @llvm.lifetime.start.p0(i64 8, ptr %caster) #11
  %call = call noundef ptr @_ZN5boost15optional_detail15aligned_storageIN8QuantLib6PeriodEE7addressEv(ptr noundef nonnull align 4 dereferenceable(8) %this1)
  store ptr %call, ptr %caster, align 8, !tbaa !93
  %0 = load ptr, ptr %caster, align 8, !tbaa !93
  call void @llvm.lifetime.end.p0(i64 8, ptr %caster) #11
  ret ptr %0
}

; Function Attrs: mustprogress uwtable
define linkonce_odr noundef nonnull align 4 dereferenceable(8) ptr @_ZN5boost15optional_detail15aligned_storageIN8QuantLib6PeriodEE3refEv(ptr noundef nonnull align 4 dereferenceable(8) %this) #5 comdat align 2 {
entry:
  %this.addr = alloca ptr, align 8
  store ptr %this, ptr %this.addr, align 8, !tbaa !3
  %this1 = load ptr, ptr %this.addr, align 8
  %call = call noundef ptr @_ZN5boost15optional_detail15aligned_storageIN8QuantLib6PeriodEE7ptr_refEv(ptr noundef nonnull align 4 dereferenceable(8) %this1)
  ret ptr %call
}

; Function Attrs: mustprogress nounwind uwtable
define linkonce_odr noundef ptr @_ZN5boost15optional_detail15aligned_storageIN8QuantLib6PeriodEE7addressEv(ptr noundef nonnull align 4 dereferenceable(8) %this) #1 comdat align 2 {
entry:
  %this.addr = alloca ptr, align 8
  store ptr %this, ptr %this.addr, align 8, !tbaa !3
  %this1 = load ptr, ptr %this.addr, align 8
  %dummy_ = getelementptr inbounds nuw %"class.boost::optional_detail::aligned_storage", ptr %this1, i32 0, i32 0
  ret ptr %dummy_
}

; Function Attrs: mustprogress uwtable
define linkonce_odr noundef nonnull align 4 dereferenceable(8) ptr @_ZN5boost15optional_detail13optional_baseIN8QuantLib6PeriodEE8get_implEv(ptr noundef nonnull align 4 dereferenceable(12) %this) #5 comdat align 2 {
entry:
  %this.addr = alloca ptr, align 8
  store ptr %this, ptr %this.addr, align 8, !tbaa !3
  %this1 = load ptr, ptr %this.addr, align 8
  %m_storage = getelementptr inbounds nuw %"class.boost::optional_detail::optional_base", ptr %this1, i32 0, i32 2
  %call = call noundef nonnull align 4 dereferenceable(8) ptr @_ZN5boost15optional_detail15aligned_storageIN8QuantLib6PeriodEE3refEv(ptr noundef nonnull align 4 dereferenceable(8) %m_storage)
  ret ptr %call
}

; Function Attrs: mustprogress uwtable
define linkonce_odr void @_ZN5boost15optional_detail13optional_baseIN8QuantLib6PeriodEE9constructERKS3_(ptr noundef nonnull align 4 dereferenceable(12) %this, ptr noundef nonnull align 4 dereferenceable(8) %val) #5 comdat align 2 {
entry:
  %this.addr = alloca ptr, align 8
  %val.addr = alloca ptr, align 8
  store ptr %this, ptr %this.addr, align 8, !tbaa !3
  store ptr %val, ptr %val.addr, align 8, !tbaa !3
  %this1 = load ptr, ptr %this.addr, align 8
  %m_storage = getelementptr inbounds nuw %"class.boost::optional_detail::optional_base", ptr %this1, i32 0, i32 2
  %call = call noundef ptr @_ZN5boost15optional_detail15aligned_storageIN8QuantLib6PeriodEE7addressEv(ptr noundef nonnull align 4 dereferenceable(8) %m_storage)
  %0 = load ptr, ptr %val.addr, align 8, !tbaa !3
  call void @llvm.memcpy.p0.p0.i64(ptr align 4 %call, ptr align 4 %0, i64 8, i1 false), !tbaa.struct !92
  %m_initialized = getelementptr inbounds nuw %"class.boost::optional_detail::optional_base", ptr %this1, i32 0, i32 0
  store i8 1, ptr %m_initialized, align 4, !tbaa !91
  ret void
}

; Function Attrs: mustprogress uwtable
define linkonce_odr void @_ZN5boost15optional_detail13optional_baseIN8QuantLib6PeriodEE12assign_valueERKS3_(ptr noundef nonnull align 4 dereferenceable(12) %this, ptr noundef nonnull align 4 dereferenceable(8) %val) #5 comdat align 2 {
entry:
  %this.addr = alloca ptr, align 8
  %val.addr = alloca ptr, align 8
  store ptr %this, ptr %this.addr, align 8, !tbaa !3
  store ptr %val, ptr %val.addr, align 8, !tbaa !3
  %this1 = load ptr, ptr %this.addr, align 8
  %0 = load ptr, ptr %val.addr, align 8, !tbaa !3
  %call = call noundef nonnull align 4 dereferenceable(8) ptr @_ZN5boost15optional_detail13optional_baseIN8QuantLib6PeriodEE8get_implEv(ptr noundef nonnull align 4 dereferenceable(12) %this1)
  call void @llvm.memcpy.p0.p0.i64(ptr align 4 %call, ptr align 4 %0, i64 8, i1 false), !tbaa.struct !92
  ret void
}

; Function Attrs: mustprogress nounwind uwtable
define linkonce_odr noundef zeroext i1 @_ZNK5boost15optional_detail13optional_baseIN8QuantLib6PeriodEE14is_initializedEv(ptr noundef nonnull align 4 dereferenceable(12) %this) #1 comdat align 2 {
entry:
  %this.addr = alloca ptr, align 8
  store ptr %this, ptr %this.addr, align 8, !tbaa !3
  %this1 = load ptr, ptr %this.addr, align 8
  %m_initialized = getelementptr inbounds nuw %"class.boost::optional_detail::optional_base", ptr %this1, i32 0, i32 0
  %0 = load i8, ptr %m_initialized, align 4, !tbaa !91, !range !45, !noundef !46
  %loadedv = trunc i8 %0 to i1
  ret i1 %loadedv
}

; Function Attrs: mustprogress uwtable
define linkonce_odr void @_ZN5boost15optional_detail13optional_baseIN8QuantLib6PeriodEE6assignERKS3_(ptr noundef nonnull align 4 dereferenceable(12) %this, ptr noundef nonnull align 4 dereferenceable(8) %val) #5 comdat align 2 {
entry:
  %this.addr = alloca ptr, align 8
  %val.addr = alloca ptr, align 8
  store ptr %this, ptr %this.addr, align 8, !tbaa !3
  store ptr %val, ptr %val.addr, align 8, !tbaa !3
  %this1 = load ptr, ptr %this.addr, align 8
  %call = call noundef zeroext i1 @_ZNK5boost15optional_detail13optional_baseIN8QuantLib6PeriodEE14is_initializedEv(ptr noundef nonnull align 4 dereferenceable(12) %this1) #11
  br i1 %call, label %if.then, label %if.else

if.then:                                          ; preds = %entry
  %0 = load ptr, ptr %val.addr, align 8, !tbaa !3
  call void @_ZN5boost15optional_detail13optional_baseIN8QuantLib6PeriodEE12assign_valueERKS3_(ptr noundef nonnull align 4 dereferenceable(12) %this1, ptr noundef nonnull align 4 dereferenceable(8) %0)
  br label %if.end

if.else:                                          ; preds = %entry
  %1 = load ptr, ptr %val.addr, align 8, !tbaa !3
  call void @_ZN5boost15optional_detail13optional_baseIN8QuantLib6PeriodEE9constructERKS3_(ptr noundef nonnull align 4 dereferenceable(12) %this1, ptr noundef nonnull align 4 dereferenceable(8) %1)
  br label %if.end

if.end:                                           ; preds = %if.else, %if.then
  ret void
}

; Function Attrs: inlinehint mustprogress nounwind uwtable
define linkonce_odr noundef nonnull align 4 dereferenceable(8) ptr @_ZN5boost7forwardIRKN8QuantLib6PeriodEEEOT_RNS_11move_detail16remove_referenceIS5_E4typeE(ptr noundef nonnull align 4 dereferenceable(8) %t) #6 comdat {
entry:
  %t.addr = alloca ptr, align 8
  store ptr %t, ptr %t.addr, align 8, !tbaa !3
  %0 = load ptr, ptr %t.addr, align 8, !tbaa !3
  ret ptr %0
}

; Function Attrs: mustprogress uwtable
define linkonce_odr noundef nonnull align 4 dereferenceable(12) ptr @_ZN5boost8optionalIN8QuantLib6PeriodEEaSIRKS2_EENS_9enable_ifINS_7is_sameIS2_NS_5decayIT_E4typeEEERS3_E4typeEOSA_(ptr noundef nonnull align 4 dereferenceable(12) %this, ptr noundef nonnull align 4 dereferenceable(8) %val) #5 comdat align 2 {
entry:
  %this.addr = alloca ptr, align 8
  %val.addr = alloca ptr, align 8
  store ptr %this, ptr %this.addr, align 8, !tbaa !3
  store ptr %val, ptr %val.addr, align 8, !tbaa !3
  %this1 = load ptr, ptr %this.addr, align 8
  %0 = load ptr, ptr %val.addr, align 8, !tbaa !3
  %call = call noundef nonnull align 4 dereferenceable(8) ptr @_ZN5boost7forwardIRKN8QuantLib6PeriodEEEOT_RNS_11move_detail16remove_referenceIS5_E4typeE(ptr noundef nonnull align 4 dereferenceable(8) %0) #11
  call void @_ZN5boost15optional_detail13optional_baseIN8QuantLib6PeriodEE6assignERKS3_(ptr noundef nonnull align 4 dereferenceable(12) %this1, ptr noundef nonnull align 4 dereferenceable(8) %call)
  ret ptr %this1
}

; Function Attrs: mustprogress uwtable
define noundef nonnull align 8 dereferenceable(88) ptr @_ZN8QuantLib12MakeSchedule9withTenorERKNS_6PeriodE(ptr noundef nonnull align 8 dereferenceable(88) %this, ptr noundef nonnull align 4 dereferenceable(8) %tenor) #5 align 2 {
entry:
  %this.addr = alloca ptr, align 8
  %tenor.addr = alloca ptr, align 8
  store ptr %this, ptr %this.addr, align 8, !tbaa !3
  store ptr %tenor, ptr %tenor.addr, align 8, !tbaa !3
  %this1 = load ptr, ptr %this.addr, align 8
  %0 = load ptr, ptr %tenor.addr, align 8, !tbaa !3
  %tenor_ = getelementptr inbounds nuw %"class.QuantLib::MakeSchedule", ptr %this1, i32 0, i32 3
  %call = call noundef nonnull align 4 dereferenceable(12) ptr @_ZN5boost8optionalIN8QuantLib6PeriodEEaSIRKS2_EENS_9enable_ifINS_7is_sameIS2_NS_5decayIT_E4typeEEERS3_E4typeEOSA_(ptr noundef nonnull align 4 dereferenceable(12) %tenor_, ptr noundef nonnull align 4 dereferenceable(8) %0)
  ret ptr %this1
}