; Function Attrs: mustprogress nofree norecurse nosync nounwind willreturn memory(argmem: readwrite) uwtable
define noundef nonnull align 8 dereferenceable(88) ptr @_ZN8QuantLib12MakeSchedule9withTenorERKNS_6PeriodE(ptr noundef nonnull returned align 8 dereferenceable(88) %this, ptr nocapture noundef nonnull readonly align 4 dereferenceable(8) %tenor) local_unnamed_addr #12 align 2 {
entry:
  %tenor_ = getelementptr inbounds nuw i8, ptr %this, i64 32
  %0 = load i8, ptr %tenor_, align 8, !tbaa !3, !range !9, !noundef !10
  %loadedv.i.i.i = trunc nuw i8 %0 to i1
  %1 = load i64, ptr %tenor, align 4
  br i1 %loadedv.i.i.i, label %_ZN5boost8optionalIN8QuantLib6PeriodEEaSIRKS2_EENS_9enable_ifINS_7is_sameIS2_NS_5decayIT_E4typeEEERS3_E4typeEOSA_.exit, label %if.else.i.i

if.else.i.i:                                      ; preds = %entry
  store i8 1, ptr %tenor_, align 8, !tbaa !3
  br label %_ZN5boost8optionalIN8QuantLib6PeriodEEaSIRKS2_EENS_9enable_ifINS_7is_sameIS2_NS_5decayIT_E4typeEEERS3_E4typeEOSA_.exit

_ZN5boost8optionalIN8QuantLib6PeriodEEaSIRKS2_EENS_9enable_ifINS_7is_sameIS2_NS_5decayIT_E4typeEEERS3_E4typeEOSA_.exit: ; preds = %entry, %if.else.i.i
  %2 = getelementptr inbounds nuw i8, ptr %this, i64 36
  store i64 %1, ptr %2, align 4
  ret ptr %this
}